; Function Attrs: mustprogress uwtable
define dso_local noundef nonnull align 8 dereferenceable(16) ptr @_ZN4absl12log_internal10LogMessage10AtLocationESt17basic_string_viewIcSt11char_traitsIcEEi(ptr noundef nonnull readonly returned align 8 captures(ret: address, provenance) dereferenceable(16) %0, i64 %1, ptr %2, i32 noundef %3) local_unnamed_addr #0 align 2 {
  %5 = getelementptr inbounds nuw i8, ptr %0, i64 8
  %6 = load ptr, ptr %5, align 8, !tbaa !4
  store i64 %1, ptr %6, align 8, !tbaa !31
  %.sroa.3.0..sroa_idx = getelementptr inbounds nuw i8, ptr %6, i64 8
  store ptr %2, ptr %.sroa.3.0..sroa_idx, align 8, !tbaa !44
  %.not.i.i.i = icmp eq i64 %1, 0
  br i1 %.not.i.i.i, label %_ZN4absl12log_internal12_GLOBAL__N_18BasenameESt17basic_string_viewIcSt11char_traitsIcEE.exit, label %.preheader.i

.preheader.i:                                     ; preds = %4, %7
  %.1.i.i.i = phi i64 [ %8, %7 ], [ %1, %4 ]
  %.not13.i.i.i = icmp eq i64 %.1.i.i.i, 0
  br i1 %.not13.i.i.i, label %_ZN4absl12log_internal12_GLOBAL__N_18BasenameESt17basic_string_viewIcSt11char_traitsIcEE.exit, label %7

7:                                                ; preds = %.preheader.i
  %8 = add i64 %.1.i.i.i, -1
  %9 = getelementptr inbounds nuw i8, ptr %2, i64 %8
  %10 = load i8, ptr %9, align 1, !tbaa !17
  %11 = icmp eq i8 %10, 47
  br i1 %11, label %_ZNKSt17basic_string_viewIcSt11char_traitsIcEE12find_last_ofEcm.exit.i, label %.preheader.i, !llvm.loop !82

_ZNKSt17basic_string_viewIcSt11char_traitsIcEE12find_last_ofEcm.exit.i: ; preds = %7
  %12 = getelementptr inbounds nuw i8, ptr %2, i64 %.1.i.i.i
  %13 = sub i64 %1, %.1.i.i.i
  br label %_ZN4absl12log_internal12_GLOBAL__N_18BasenameESt17basic_string_viewIcSt11char_traitsIcEE.exit

_ZN4absl12log_internal12_GLOBAL__N_18BasenameESt17basic_string_viewIcSt11char_traitsIcEE.exit: ; preds = %.preheader.i, %4, %_ZNKSt17basic_string_viewIcSt11char_traitsIcEE12find_last_ofEcm.exit.i
  %.sroa.5.0.i = phi ptr [ %12, %_ZNKSt17basic_string_viewIcSt11char_traitsIcEE12find_last_ofEcm.exit.i ], [ %2, %4 ], [ %2, %.preheader.i ]
  %.sroa.0.0.i = phi i64 [ %13, %_ZNKSt17basic_string_viewIcSt11char_traitsIcEE12find_last_ofEcm.exit.i ], [ 0, %4 ], [ %1, %.preheader.i ]
  %14 = getelementptr inbounds nuw i8, ptr %6, i64 16
  store i64 %.sroa.0.0.i, ptr %14, align 8, !tbaa !31
  %.sroa.4.0..sroa_idx = getelementptr inbounds nuw i8, ptr %6, i64 24
  store ptr %.sroa.5.0.i, ptr %.sroa.4.0..sroa_idx, align 8, !tbaa !44
  %15 = getelementptr inbounds nuw i8, ptr %6, i64 32
  store i32 %3, ptr %15, align 8, !tbaa !84
  tail call void @_ZN4absl12log_internal10LogMessage20LogBacktraceIfNeededEv(ptr noundef nonnull align 8 dereferenceable(16) %0)
  ret ptr %0
}